; Function Attrs: mustprogress uwtable
define noundef nonnull align 8 dereferenceable(8) ptr @_ZN32pxrInternal_v0_24__pxrReserved__lsERSoRKNS_10GfMatrix2fE(ptr noundef nonnull align 8 dereferenceable(8) %0, ptr noundef nonnull readonly align 4 captures(none) dereferenceable(16) %1) local_unnamed_addr #0 {
  %3 = tail call noundef nonnull align 8 dereferenceable(8) ptr @_ZStlsISt11char_traitsIcEERSt13basic_ostreamIcT_ES5_PKc(ptr noundef nonnull align 8 dereferenceable(8) %0, ptr noundef nonnull @.str.2)
  %4 = load float, ptr %1, align 4
  %5 = tail call noundef nonnull align 8 dereferenceable(8) ptr @_ZN32pxrInternal_v0_24__pxrReserved__lsERSoNS_13TfStreamFloatE(ptr noundef nonnull align 8 dereferenceable(8) %3, float %4)
  %6 = tail call noundef nonnull align 8 dereferenceable(8) ptr @_ZStlsISt11char_traitsIcEERSt13basic_ostreamIcT_ES5_PKc(ptr noundef nonnull align 8 dereferenceable(8) %5, ptr noundef nonnull @.str.3)
  %7 = getelementptr inbounds nuw i8, ptr %1, i64 4
  %8 = load float, ptr %7, align 4
  %9 = tail call noundef nonnull align 8 dereferenceable(8) ptr @_ZN32pxrInternal_v0_24__pxrReserved__lsERSoNS_13TfStreamFloatE(ptr noundef nonnull align 8 dereferenceable(8) %6, float %8)
  %10 = tail call noundef nonnull align 8 dereferenceable(8) ptr @_ZStlsISt11char_traitsIcEERSt13basic_ostreamIcT_ES5_PKc(ptr noundef nonnull align 8 dereferenceable(8) %9, ptr noundef nonnull @.str.4)
  %11 = getelementptr inbounds nuw i8, ptr %1, i64 8
  %12 = load float, ptr %11, align 4
  %13 = tail call noundef nonnull align 8 dereferenceable(8) ptr @_ZN32pxrInternal_v0_24__pxrReserved__lsERSoNS_13TfStreamFloatE(ptr noundef nonnull align 8 dereferenceable(8) %10, float %12)
  %14 = tail call noundef nonnull align 8 dereferenceable(8) ptr @_ZStlsISt11char_traitsIcEERSt13basic_ostreamIcT_ES5_PKc(ptr noundef nonnull align 8 dereferenceable(8) %13, ptr noundef nonnull @.str.3)
  %15 = getelementptr inbounds nuw i8, ptr %1, i64 12
  %16 = load float, ptr %15, align 4
  %17 = tail call noundef nonnull align 8 dereferenceable(8) ptr @_ZN32pxrInternal_v0_24__pxrReserved__lsERSoNS_13TfStreamFloatE(ptr noundef nonnull align 8 dereferenceable(8) %14, float %16)
  %18 = tail call noundef nonnull align 8 dereferenceable(8) ptr @_ZStlsISt11char_traitsIcEERSt13basic_ostreamIcT_ES5_PKc(ptr noundef nonnull align 8 dereferenceable(8) %17, ptr noundef nonnull @.str.5)
  ret ptr %18
}